target datalayout = "e-m:e-p270:32:32-p271:32:32-p272:64:64-i64:64-i128:128-f80:128-n8:16:32:64-S128"
target triple = "x86_64-pc-linux-gnu"

@.str = private unnamed_addr constant [126 x i8] c"generated/home/dtcxzyw/WorkSpace/Projects/compilers/llvm-opt-benchmark/bench/libquic/libquic/boringssl/crypto/x509/x509_att.c\00", align 1

; Function Attrs: nounwind uwtable
define hidden ptr @X509_ATTRIBUTE_create_by_NID(ptr noundef %0, i32 noundef %1, i32 noundef %2, ptr noundef %3, i32 noundef %4) #0 {
  %6 = alloca ptr, align 8
  %7 = alloca ptr, align 8
  %8 = alloca i32, align 4
  %9 = alloca i32, align 4
  %10 = alloca ptr, align 8
  %11 = alloca i32, align 4
  %12 = alloca ptr, align 8
  %13 = alloca i32, align 4
  store ptr %0, ptr %7, align 8, !tbaa !25
  store i32 %1, ptr %8, align 4, !tbaa !11
  store i32 %2, ptr %9, align 4, !tbaa !11
  store ptr %3, ptr %10, align 8, !tbaa !27
  store i32 %4, ptr %11, align 4, !tbaa !11
  call void @llvm.lifetime.start.p0(i64 8, ptr %12) #3
  %14 = load i32, ptr %8, align 4, !tbaa !11
  %15 = call ptr @OBJ_nid2obj(i32 noundef %14)
  store ptr %15, ptr %12, align 8, !tbaa !13
  %16 = load ptr, ptr %12, align 8, !tbaa !13
  %17 = icmp eq ptr %16, null
  br i1 %17, label %18, label %19

18:                                               ; preds = %5
  call void @ERR_put_error(i32 noundef 11, i32 noundef 0, i32 noundef 129, ptr noundef @.str, i32 noundef 224)
  store ptr null, ptr %6, align 8
  store i32 1, ptr %13, align 4
  br label %26

19:                                               ; preds = %5
  %20 = load ptr, ptr %7, align 8, !tbaa !25
  %21 = load ptr, ptr %12, align 8, !tbaa !13
  %22 = load i32, ptr %9, align 4, !tbaa !11
  %23 = load ptr, ptr %10, align 8, !tbaa !27
  %24 = load i32, ptr %11, align 4, !tbaa !11
  %25 = call ptr @X509_ATTRIBUTE_create_by_OBJ(ptr noundef %20, ptr noundef %21, i32 noundef %22, ptr noundef %23, i32 noundef %24)
  store ptr %25, ptr %6, align 8
  store i32 1, ptr %13, align 4
  br label %26

26:                                               ; preds = %19, %18
  call void @llvm.lifetime.end.p0(i64 8, ptr %12) #3
  %27 = load ptr, ptr %6, align 8
  ret ptr %27
}