; Function Attrs: nounwind uwtable
define hidden ptr @X509_ATTRIBUTE_create_by_NID(ptr noundef captures(address_is_null) %0, i32 noundef %1, i32 noundef %2, ptr noundef %3, i32 noundef %4) local_unnamed_addr #0 {
  %6 = tail call ptr @OBJ_nid2obj(i32 noundef %1) #4
  %7 = icmp eq ptr %6, null
  br i1 %7, label %8, label %9

8:                                                ; preds = %5
  tail call void @ERR_put_error(i32 noundef 11, i32 noundef 0, i32 noundef 129, ptr noundef nonnull @.str, i32 noundef 224) #4
  br label %11

9:                                                ; preds = %5
  %10 = tail call ptr @X509_ATTRIBUTE_create_by_OBJ(ptr noundef %0, ptr noundef nonnull %6, i32 noundef %2, ptr noundef %3, i32 noundef %4)
  br label %11

11:                                               ; preds = %9, %8
  %.0 = phi ptr [ null, %8 ], [ %10, %9 ]
  ret ptr %.0
}